target datalayout = "e-m:e-p270:32:32-p271:32:32-p272:64:64-i64:64-i128:128-f80:128-n8:16:32:64-S128"
target triple = "x86_64-pc-linux-gnu"

; Function Attrs: mustprogress nounwind uwtable
define noundef i32 @_Z43CanonCameraInfo_checkFirmwareRecordLocationPh(ptr noundef %0) #3 {
  %2 = alloca i32, align 4
  %3 = alloca ptr, align 8
  store ptr %0, ptr %3, align 8, !tbaa !84
  %4 = load ptr, ptr %3, align 8, !tbaa !84
  %5 = load i8, ptr %4, align 1, !tbaa !85
  %6 = zext i8 %5 to i32
  %7 = call i32 @isdigit(i32 noundef %6) #10
  %8 = icmp ne i32 %7, 0
  br i1 %8, label %9, label %49

9:                                                ; preds = %1
  %10 = load ptr, ptr %3, align 8, !tbaa !84
  %11 = getelementptr inbounds i8, ptr %10, i64 2
  %12 = load i8, ptr %11, align 1, !tbaa !85
  %13 = zext i8 %12 to i32
  %14 = call i32 @isdigit(i32 noundef %13) #10
  %15 = icmp ne i32 %14, 0
  br i1 %15, label %16, label %49

16:                                               ; preds = %9
  %17 = load ptr, ptr %3, align 8, !tbaa !84
  %18 = getelementptr inbounds i8, ptr %17, i64 4
  %19 = load i8, ptr %18, align 1, !tbaa !85
  %20 = zext i8 %19 to i32
  %21 = call i32 @isdigit(i32 noundef %20) #10
  %22 = icmp ne i32 %21, 0
  br i1 %22, label %23, label %49

23:                                               ; preds = %16
  %24 = load ptr, ptr %3, align 8, !tbaa !84
  %25 = getelementptr inbounds i8, ptr %24, i64 1
  %26 = load i8, ptr %25, align 1, !tbaa !85
  %27 = zext i8 %26 to i32
  %28 = icmp eq i32 %27, 46
  br i1 %28, label %29, label %49

29:                                               ; preds = %23
  %30 = load ptr, ptr %3, align 8, !tbaa !84
  %31 = getelementptr inbounds i8, ptr %30, i64 3
  %32 = load i8, ptr %31, align 1, !tbaa !85
  %33 = zext i8 %32 to i32
  %34 = icmp eq i32 %33, 46
  br i1 %34, label %35, label %49

35:                                               ; preds = %29
  %36 = load ptr, ptr %3, align 8, !tbaa !84
  %37 = getelementptr inbounds i8, ptr %36, i64 5
  %38 = load i8, ptr %37, align 1, !tbaa !85
  %39 = zext i8 %38 to i32
  %40 = icmp eq i32 %39, 0
  br i1 %40, label %48, label %41

41:                                               ; preds = %35
  %42 = load ptr, ptr %3, align 8, !tbaa !84
  %43 = getelementptr inbounds i8, ptr %42, i64 5
  %44 = load i8, ptr %43, align 1, !tbaa !85
  %45 = zext i8 %44 to i32
  %46 = call i32 @isspace(i32 noundef %45) #10
  %47 = icmp ne i32 %46, 0
  br i1 %47, label %48, label %49

48:                                               ; preds = %41, %35
  store i32 1, ptr %2, align 4
  br label %50

49:                                               ; preds = %41, %29, %23, %16, %9, %1
  store i32 0, ptr %2, align 4
  br label %50

50:                                               ; preds = %49, %48
  %51 = load i32, ptr %2, align 4
  ret i32 %51
}