; Function Attrs: mustprogress nofree nounwind willreturn memory(read) uwtable
define noundef range(i32 0, 2) i32 @_Z43CanonCameraInfo_checkFirmwareRecordLocationPh(ptr noundef readonly captures(none) %0) local_unnamed_addr #4 {
  %2 = load i8, ptr %0, align 1, !tbaa !74
  %3 = add i8 %2, -48
  %isdigit = icmp ult i8 %3, 10
  br i1 %isdigit, label %4, label %27

4:                                                ; preds = %1
  %5 = getelementptr inbounds nuw i8, ptr %0, i64 2
  %6 = load i8, ptr %5, align 1, !tbaa !74
  %7 = add i8 %6, -48
  %isdigit8 = icmp ult i8 %7, 10
  br i1 %isdigit8, label %8, label %27

8:                                                ; preds = %4
  %9 = getelementptr inbounds nuw i8, ptr %0, i64 4
  %10 = load i8, ptr %9, align 1, !tbaa !74
  %11 = add i8 %10, -48
  %isdigit9 = icmp ult i8 %11, 10
  br i1 %isdigit9, label %12, label %27

12:                                               ; preds = %8
  %13 = getelementptr inbounds nuw i8, ptr %0, i64 1
  %14 = load i8, ptr %13, align 1, !tbaa !74
  %15 = icmp eq i8 %14, 46
  br i1 %15, label %16, label %27

16:                                               ; preds = %12
  %17 = getelementptr inbounds nuw i8, ptr %0, i64 3
  %18 = load i8, ptr %17, align 1, !tbaa !74
  %19 = icmp eq i8 %18, 46
  br i1 %19, label %20, label %27

20:                                               ; preds = %16
  %21 = getelementptr inbounds nuw i8, ptr %0, i64 5
  %22 = load i8, ptr %21, align 1, !tbaa !74
  %23 = icmp eq i8 %22, 0
  br i1 %23, label %28, label %24

24:                                               ; preds = %20
  %25 = zext i8 %22 to i32
  %26 = tail call i32 @isspace(i32 noundef %25) #11
  %.not = icmp eq i32 %26, 0
  br i1 %.not, label %27, label %28

27:                                               ; preds = %24, %16, %12, %8, %4, %1
  br label %28

28:                                               ; preds = %20, %24, %27
  %.0 = phi i32 [ 0, %27 ], [ 1, %24 ], [ 1, %20 ]
  ret i32 %.0
}